
BootloaderX.elf:     file format elf32-avr

Sections:
Idx Name          Size      VMA       LMA       File off  Algn
  0 .text         000009e8  00060000  00060000  00000074  2**1
                  CONTENTS, ALLOC, LOAD, READONLY, CODE
  1 .BOOT         00000044  000609e8  000609e8  00000a5c  2**0
                  CONTENTS, ALLOC, LOAD, READONLY, CODE
  2 .bss          00000004  00802000  00802000  00000aa0  2**0
                  ALLOC
  3 .comment      00000030  00000000  00000000  00000aa0  2**0
                  CONTENTS, READONLY
  4 .debug_aranges 00000048  00000000  00000000  00000ad0  2**3
                  CONTENTS, READONLY, DEBUGGING
  5 .debug_info   000000d6  00000000  00000000  00000b18  2**0
                  CONTENTS, READONLY, DEBUGGING
  6 .debug_abbrev 00000026  00000000  00000000  00000bee  2**0
                  CONTENTS, READONLY, DEBUGGING
  7 .debug_line   0000015d  00000000  00000000  00000c14  2**0
                  CONTENTS, READONLY, DEBUGGING
  8 .debug_ranges 00000020  00000000  00000000  00000d78  2**3
                  CONTENTS, READONLY, DEBUGGING

Disassembly of section .text:

00060000 <__vectors>:
   60000:	fd c0       	rjmp	.+506    	; 0x601fc <__ctors_end>
   60002:	00 00       	nop
   60004:	0d c1       	rjmp	.+538    	; 0x60220 <__bad_interrupt>
   60006:	00 00       	nop
   60008:	0b c1       	rjmp	.+534    	; 0x60220 <__bad_interrupt>
   6000a:	00 00       	nop
   6000c:	09 c1       	rjmp	.+530    	; 0x60220 <__bad_interrupt>
   6000e:	00 00       	nop
   60010:	07 c1       	rjmp	.+526    	; 0x60220 <__bad_interrupt>
   60012:	00 00       	nop
   60014:	05 c1       	rjmp	.+522    	; 0x60220 <__bad_interrupt>
   60016:	00 00       	nop
   60018:	03 c1       	rjmp	.+518    	; 0x60220 <__bad_interrupt>
   6001a:	00 00       	nop
   6001c:	01 c1       	rjmp	.+514    	; 0x60220 <__bad_interrupt>
   6001e:	00 00       	nop
   60020:	ff c0       	rjmp	.+510    	; 0x60220 <__bad_interrupt>
   60022:	00 00       	nop
   60024:	fd c0       	rjmp	.+506    	; 0x60220 <__bad_interrupt>
   60026:	00 00       	nop
   60028:	95 c4       	rjmp	.+2346   	; 0x60954 <__vector_10>
   6002a:	00 00       	nop
   6002c:	f9 c0       	rjmp	.+498    	; 0x60220 <__bad_interrupt>
   6002e:	00 00       	nop
   60030:	f7 c0       	rjmp	.+494    	; 0x60220 <__bad_interrupt>
   60032:	00 00       	nop
   60034:	f5 c0       	rjmp	.+490    	; 0x60220 <__bad_interrupt>
   60036:	00 00       	nop
   60038:	f3 c0       	rjmp	.+486    	; 0x60220 <__bad_interrupt>
   6003a:	00 00       	nop
   6003c:	f1 c0       	rjmp	.+482    	; 0x60220 <__bad_interrupt>
   6003e:	00 00       	nop
   60040:	ef c0       	rjmp	.+478    	; 0x60220 <__bad_interrupt>
   60042:	00 00       	nop
   60044:	ed c0       	rjmp	.+474    	; 0x60220 <__bad_interrupt>
   60046:	00 00       	nop
   60048:	eb c0       	rjmp	.+470    	; 0x60220 <__bad_interrupt>
   6004a:	00 00       	nop
   6004c:	e9 c0       	rjmp	.+466    	; 0x60220 <__bad_interrupt>
   6004e:	00 00       	nop
   60050:	e7 c0       	rjmp	.+462    	; 0x60220 <__bad_interrupt>
   60052:	00 00       	nop
   60054:	e5 c0       	rjmp	.+458    	; 0x60220 <__bad_interrupt>
   60056:	00 00       	nop
   60058:	e3 c0       	rjmp	.+454    	; 0x60220 <__bad_interrupt>
   6005a:	00 00       	nop
   6005c:	e1 c0       	rjmp	.+450    	; 0x60220 <__bad_interrupt>
   6005e:	00 00       	nop
   60060:	df c0       	rjmp	.+446    	; 0x60220 <__bad_interrupt>
   60062:	00 00       	nop
   60064:	dd c0       	rjmp	.+442    	; 0x60220 <__bad_interrupt>
   60066:	00 00       	nop
   60068:	db c0       	rjmp	.+438    	; 0x60220 <__bad_interrupt>
   6006a:	00 00       	nop
   6006c:	d9 c0       	rjmp	.+434    	; 0x60220 <__bad_interrupt>
   6006e:	00 00       	nop
   60070:	d7 c0       	rjmp	.+430    	; 0x60220 <__bad_interrupt>
   60072:	00 00       	nop
   60074:	d5 c0       	rjmp	.+426    	; 0x60220 <__bad_interrupt>
   60076:	00 00       	nop
   60078:	d3 c0       	rjmp	.+422    	; 0x60220 <__bad_interrupt>
   6007a:	00 00       	nop
   6007c:	d1 c0       	rjmp	.+418    	; 0x60220 <__bad_interrupt>
   6007e:	00 00       	nop
   60080:	cf c0       	rjmp	.+414    	; 0x60220 <__bad_interrupt>
   60082:	00 00       	nop
   60084:	cd c0       	rjmp	.+410    	; 0x60220 <__bad_interrupt>
   60086:	00 00       	nop
   60088:	cb c0       	rjmp	.+406    	; 0x60220 <__bad_interrupt>
   6008a:	00 00       	nop
   6008c:	c9 c0       	rjmp	.+402    	; 0x60220 <__bad_interrupt>
   6008e:	00 00       	nop
   60090:	c7 c0       	rjmp	.+398    	; 0x60220 <__bad_interrupt>
   60092:	00 00       	nop
   60094:	c5 c0       	rjmp	.+394    	; 0x60220 <__bad_interrupt>
   60096:	00 00       	nop
   60098:	c3 c0       	rjmp	.+390    	; 0x60220 <__bad_interrupt>
   6009a:	00 00       	nop
   6009c:	c1 c0       	rjmp	.+386    	; 0x60220 <__bad_interrupt>
   6009e:	00 00       	nop
   600a0:	bf c0       	rjmp	.+382    	; 0x60220 <__bad_interrupt>
   600a2:	00 00       	nop
   600a4:	bd c0       	rjmp	.+378    	; 0x60220 <__bad_interrupt>
   600a6:	00 00       	nop
   600a8:	bb c0       	rjmp	.+374    	; 0x60220 <__bad_interrupt>
   600aa:	00 00       	nop
   600ac:	b9 c0       	rjmp	.+370    	; 0x60220 <__bad_interrupt>
   600ae:	00 00       	nop
   600b0:	b7 c0       	rjmp	.+366    	; 0x60220 <__bad_interrupt>
   600b2:	00 00       	nop
   600b4:	b5 c0       	rjmp	.+362    	; 0x60220 <__bad_interrupt>
   600b6:	00 00       	nop
   600b8:	b3 c0       	rjmp	.+358    	; 0x60220 <__bad_interrupt>
   600ba:	00 00       	nop
   600bc:	b1 c0       	rjmp	.+354    	; 0x60220 <__bad_interrupt>
   600be:	00 00       	nop
   600c0:	af c0       	rjmp	.+350    	; 0x60220 <__bad_interrupt>
   600c2:	00 00       	nop
   600c4:	ad c0       	rjmp	.+346    	; 0x60220 <__bad_interrupt>
   600c6:	00 00       	nop
   600c8:	ab c0       	rjmp	.+342    	; 0x60220 <__bad_interrupt>
   600ca:	00 00       	nop
   600cc:	a9 c0       	rjmp	.+338    	; 0x60220 <__bad_interrupt>
   600ce:	00 00       	nop
   600d0:	a7 c0       	rjmp	.+334    	; 0x60220 <__bad_interrupt>
   600d2:	00 00       	nop
   600d4:	a5 c0       	rjmp	.+330    	; 0x60220 <__bad_interrupt>
   600d6:	00 00       	nop
   600d8:	a3 c0       	rjmp	.+326    	; 0x60220 <__bad_interrupt>
   600da:	00 00       	nop
   600dc:	a1 c0       	rjmp	.+322    	; 0x60220 <__bad_interrupt>
   600de:	00 00       	nop
   600e0:	9f c0       	rjmp	.+318    	; 0x60220 <__bad_interrupt>
   600e2:	00 00       	nop
   600e4:	9d c0       	rjmp	.+314    	; 0x60220 <__bad_interrupt>
   600e6:	00 00       	nop
   600e8:	9b c0       	rjmp	.+310    	; 0x60220 <__bad_interrupt>
   600ea:	00 00       	nop
   600ec:	99 c0       	rjmp	.+306    	; 0x60220 <__bad_interrupt>
   600ee:	00 00       	nop
   600f0:	97 c0       	rjmp	.+302    	; 0x60220 <__bad_interrupt>
   600f2:	00 00       	nop
   600f4:	95 c0       	rjmp	.+298    	; 0x60220 <__bad_interrupt>
   600f6:	00 00       	nop
   600f8:	93 c0       	rjmp	.+294    	; 0x60220 <__bad_interrupt>
   600fa:	00 00       	nop
   600fc:	91 c0       	rjmp	.+290    	; 0x60220 <__bad_interrupt>
   600fe:	00 00       	nop
   60100:	8f c0       	rjmp	.+286    	; 0x60220 <__bad_interrupt>
   60102:	00 00       	nop
   60104:	8d c0       	rjmp	.+282    	; 0x60220 <__bad_interrupt>
   60106:	00 00       	nop
   60108:	8b c0       	rjmp	.+278    	; 0x60220 <__bad_interrupt>
   6010a:	00 00       	nop
   6010c:	89 c0       	rjmp	.+274    	; 0x60220 <__bad_interrupt>
   6010e:	00 00       	nop
   60110:	87 c0       	rjmp	.+270    	; 0x60220 <__bad_interrupt>
   60112:	00 00       	nop
   60114:	85 c0       	rjmp	.+266    	; 0x60220 <__bad_interrupt>
   60116:	00 00       	nop
   60118:	83 c0       	rjmp	.+262    	; 0x60220 <__bad_interrupt>
   6011a:	00 00       	nop
   6011c:	81 c0       	rjmp	.+258    	; 0x60220 <__bad_interrupt>
   6011e:	00 00       	nop
   60120:	7f c0       	rjmp	.+254    	; 0x60220 <__bad_interrupt>
   60122:	00 00       	nop
   60124:	7d c0       	rjmp	.+250    	; 0x60220 <__bad_interrupt>
   60126:	00 00       	nop
   60128:	7b c0       	rjmp	.+246    	; 0x60220 <__bad_interrupt>
   6012a:	00 00       	nop
   6012c:	79 c0       	rjmp	.+242    	; 0x60220 <__bad_interrupt>
   6012e:	00 00       	nop
   60130:	77 c0       	rjmp	.+238    	; 0x60220 <__bad_interrupt>
   60132:	00 00       	nop
   60134:	75 c0       	rjmp	.+234    	; 0x60220 <__bad_interrupt>
   60136:	00 00       	nop
   60138:	73 c0       	rjmp	.+230    	; 0x60220 <__bad_interrupt>
   6013a:	00 00       	nop
   6013c:	71 c0       	rjmp	.+226    	; 0x60220 <__bad_interrupt>
   6013e:	00 00       	nop
   60140:	6f c0       	rjmp	.+222    	; 0x60220 <__bad_interrupt>
   60142:	00 00       	nop
   60144:	6d c0       	rjmp	.+218    	; 0x60220 <__bad_interrupt>
   60146:	00 00       	nop
   60148:	6b c0       	rjmp	.+214    	; 0x60220 <__bad_interrupt>
   6014a:	00 00       	nop
   6014c:	69 c0       	rjmp	.+210    	; 0x60220 <__bad_interrupt>
   6014e:	00 00       	nop
   60150:	67 c0       	rjmp	.+206    	; 0x60220 <__bad_interrupt>
   60152:	00 00       	nop
   60154:	65 c0       	rjmp	.+202    	; 0x60220 <__bad_interrupt>
   60156:	00 00       	nop
   60158:	63 c0       	rjmp	.+198    	; 0x60220 <__bad_interrupt>
   6015a:	00 00       	nop
   6015c:	61 c0       	rjmp	.+194    	; 0x60220 <__bad_interrupt>
   6015e:	00 00       	nop
   60160:	5f c0       	rjmp	.+190    	; 0x60220 <__bad_interrupt>
   60162:	00 00       	nop
   60164:	5d c0       	rjmp	.+186    	; 0x60220 <__bad_interrupt>
   60166:	00 00       	nop
   60168:	5b c0       	rjmp	.+182    	; 0x60220 <__bad_interrupt>
   6016a:	00 00       	nop
   6016c:	59 c0       	rjmp	.+178    	; 0x60220 <__bad_interrupt>
   6016e:	00 00       	nop
   60170:	57 c0       	rjmp	.+174    	; 0x60220 <__bad_interrupt>
   60172:	00 00       	nop
   60174:	55 c0       	rjmp	.+170    	; 0x60220 <__bad_interrupt>
   60176:	00 00       	nop
   60178:	53 c0       	rjmp	.+166    	; 0x60220 <__bad_interrupt>
   6017a:	00 00       	nop
   6017c:	51 c0       	rjmp	.+162    	; 0x60220 <__bad_interrupt>
   6017e:	00 00       	nop
   60180:	4f c0       	rjmp	.+158    	; 0x60220 <__bad_interrupt>
   60182:	00 00       	nop
   60184:	4d c0       	rjmp	.+154    	; 0x60220 <__bad_interrupt>
   60186:	00 00       	nop
   60188:	4b c0       	rjmp	.+150    	; 0x60220 <__bad_interrupt>
   6018a:	00 00       	nop
   6018c:	49 c0       	rjmp	.+146    	; 0x60220 <__bad_interrupt>
   6018e:	00 00       	nop
   60190:	47 c0       	rjmp	.+142    	; 0x60220 <__bad_interrupt>
   60192:	00 00       	nop
   60194:	45 c0       	rjmp	.+138    	; 0x60220 <__bad_interrupt>
   60196:	00 00       	nop
   60198:	43 c0       	rjmp	.+134    	; 0x60220 <__bad_interrupt>
   6019a:	00 00       	nop
   6019c:	41 c0       	rjmp	.+130    	; 0x60220 <__bad_interrupt>
   6019e:	00 00       	nop
   601a0:	3f c0       	rjmp	.+126    	; 0x60220 <__bad_interrupt>
   601a2:	00 00       	nop
   601a4:	3d c0       	rjmp	.+122    	; 0x60220 <__bad_interrupt>
   601a6:	00 00       	nop
   601a8:	3b c0       	rjmp	.+118    	; 0x60220 <__bad_interrupt>
   601aa:	00 00       	nop
   601ac:	39 c0       	rjmp	.+114    	; 0x60220 <__bad_interrupt>
   601ae:	00 00       	nop
   601b0:	37 c0       	rjmp	.+110    	; 0x60220 <__bad_interrupt>
   601b2:	00 00       	nop
   601b4:	35 c0       	rjmp	.+106    	; 0x60220 <__bad_interrupt>
   601b6:	00 00       	nop
   601b8:	33 c0       	rjmp	.+102    	; 0x60220 <__bad_interrupt>
   601ba:	00 00       	nop
   601bc:	31 c0       	rjmp	.+98     	; 0x60220 <__bad_interrupt>
   601be:	00 00       	nop
   601c0:	2f c0       	rjmp	.+94     	; 0x60220 <__bad_interrupt>
   601c2:	00 00       	nop
   601c4:	2d c0       	rjmp	.+90     	; 0x60220 <__bad_interrupt>
   601c6:	00 00       	nop
   601c8:	2b c0       	rjmp	.+86     	; 0x60220 <__bad_interrupt>
   601ca:	00 00       	nop
   601cc:	29 c0       	rjmp	.+82     	; 0x60220 <__bad_interrupt>
   601ce:	00 00       	nop
   601d0:	27 c0       	rjmp	.+78     	; 0x60220 <__bad_interrupt>
   601d2:	00 00       	nop
   601d4:	25 c0       	rjmp	.+74     	; 0x60220 <__bad_interrupt>
   601d6:	00 00       	nop
   601d8:	23 c0       	rjmp	.+70     	; 0x60220 <__bad_interrupt>
   601da:	00 00       	nop
   601dc:	21 c0       	rjmp	.+66     	; 0x60220 <__bad_interrupt>
   601de:	00 00       	nop
   601e0:	1f c0       	rjmp	.+62     	; 0x60220 <__bad_interrupt>
   601e2:	00 00       	nop
   601e4:	1d c0       	rjmp	.+58     	; 0x60220 <__bad_interrupt>
   601e6:	00 00       	nop
   601e8:	1b c0       	rjmp	.+54     	; 0x60220 <__bad_interrupt>
   601ea:	00 00       	nop
   601ec:	19 c0       	rjmp	.+50     	; 0x60220 <__bad_interrupt>
   601ee:	00 00       	nop
   601f0:	17 c0       	rjmp	.+46     	; 0x60220 <__bad_interrupt>
   601f2:	00 00       	nop
   601f4:	15 c0       	rjmp	.+42     	; 0x60220 <__bad_interrupt>
   601f6:	00 00       	nop
   601f8:	13 c0       	rjmp	.+38     	; 0x60220 <__bad_interrupt>
	...

000601fc <__ctors_end>:
   601fc:	11 24       	eor	r1, r1
   601fe:	1f be       	out	0x3f, r1	; 63
   60200:	cf ef       	ldi	r28, 0xFF	; 255
   60202:	cd bf       	out	0x3d, r28	; 61
   60204:	df e9       	ldi	r29, 0x9F	; 159
   60206:	de bf       	out	0x3e, r29	; 62
   60208:	03 e0       	ldi	r16, 0x03	; 3
   6020a:	0c bf       	out	0x3c, r16	; 60

0006020c <__do_clear_bss>:
   6020c:	20 e2       	ldi	r18, 0x20	; 32
   6020e:	a0 e0       	ldi	r26, 0x00	; 0
   60210:	b0 e2       	ldi	r27, 0x20	; 32
   60212:	01 c0       	rjmp	.+2      	; 0x60216 <.do_clear_bss_start>

00060214 <.do_clear_bss_loop>:
   60214:	1d 92       	st	X+, r1

00060216 <.do_clear_bss_start>:
   60216:	a4 30       	cpi	r26, 0x04	; 4
   60218:	b2 07       	cpc	r27, r18
   6021a:	e1 f7       	brne	.-8      	; 0x60214 <.do_clear_bss_loop>
   6021c:	d4 d1       	rcall	.+936    	; 0x605c6 <main>
   6021e:	e2 c3       	rjmp	.+1988   	; 0x609e4 <_exit>

00060220 <__bad_interrupt>:
   60220:	ef ce       	rjmp	.-546    	; 0x60000 <__vectors>

00060222 <ccp_write_io>:

	PUBLIC_FUNCTION(ccp_write_io)

#if defined(__GNUC__)

	out     RAMPZ, r1               // Reset bits 23:16 of Z
   60222:	1b be       	out	0x3b, r1	; 59
	movw    r30, r24                // Load addr into Z
   60224:	fc 01       	movw	r30, r24
	ldi     r18, CCP_IOREG          // Load magic CCP value
   60226:	28 ed       	ldi	r18, 0xD8	; 216
	out     CCP, r18                // Start CCP handshake
   60228:	24 bf       	out	0x34, r18	; 52
	st      Z, r22                  // Write value to I/O register
   6022a:	60 83       	st	Z, r22
	ret                             // Return to caller
   6022c:	08 95       	ret

0006022e <CCPWrite>:
   6022e:	0f 93       	push	r16
   60230:	cf 93       	push	r28
   60232:	df 93       	push	r29
   60234:	1f 92       	push	r1
   60236:	cd b7       	in	r28, 0x3d	; 61
   60238:	de b7       	in	r29, 0x3e	; 62
   6023a:	2f b7       	in	r18, 0x3f	; 63
   6023c:	29 83       	std	Y+1, r18	; 0x01
   6023e:	f8 94       	cli
   60240:	1b be       	out	0x3b, r1	; 59
   60242:	fc 01       	movw	r30, r24
   60244:	08 ed       	ldi	r16, 0xD8	; 216
   60246:	04 bf       	out	0x34, r16	; 52
   60248:	60 83       	st	Z, r22
   6024a:	89 81       	ldd	r24, Y+1	; 0x01
   6024c:	8f bf       	out	0x3f, r24	; 63
   6024e:	0f 90       	pop	r0
   60250:	df 91       	pop	r29
   60252:	cf 91       	pop	r28
   60254:	0f 91       	pop	r16
   60256:	08 95       	ret

00060258 <CLKSYS_Disable>:
   60258:	e0 e5       	ldi	r30, 0x50	; 80
   6025a:	f0 e0       	ldi	r31, 0x00	; 0
   6025c:	20 81       	ld	r18, Z
   6025e:	98 2f       	mov	r25, r24
   60260:	90 95       	com	r25
   60262:	92 23       	and	r25, r18
   60264:	90 83       	st	Z, r25
   60266:	90 81       	ld	r25, Z
   60268:	89 23       	and	r24, r25
   6026a:	08 95       	ret

0006026c <CLKSYS_Main_ClockSource_Select>:
   6026c:	1f 93       	push	r17
   6026e:	cf 93       	push	r28
   60270:	df 93       	push	r29
   60272:	18 2f       	mov	r17, r24
   60274:	c0 e4       	ldi	r28, 0x40	; 64
   60276:	d0 e0       	ldi	r29, 0x00	; 0
   60278:	68 81       	ld	r22, Y
   6027a:	68 7f       	andi	r22, 0xF8	; 248
   6027c:	68 2b       	or	r22, r24
   6027e:	80 e4       	ldi	r24, 0x40	; 64
   60280:	90 e0       	ldi	r25, 0x00	; 0
   60282:	d5 df       	rcall	.-86     	; 0x6022e <CCPWrite>
   60284:	88 81       	ld	r24, Y
   60286:	81 23       	and	r24, r17
   60288:	df 91       	pop	r29
   6028a:	cf 91       	pop	r28
   6028c:	1f 91       	pop	r17
   6028e:	08 95       	ret

00060290 <CLKSYS_AutoCalibration_Enable>:
   60290:	20 91 56 00 	lds	r18, 0x0056
   60294:	98 2f       	mov	r25, r24
   60296:	90 95       	com	r25
   60298:	92 23       	and	r25, r18
   6029a:	61 11       	cpse	r22, r1
   6029c:	02 c0       	rjmp	.+4      	; 0x602a2 <CLKSYS_AutoCalibration_Enable+0x12>
   6029e:	20 e0       	ldi	r18, 0x00	; 0
   602a0:	01 c0       	rjmp	.+2      	; 0x602a4 <CLKSYS_AutoCalibration_Enable+0x14>
   602a2:	28 2f       	mov	r18, r24
   602a4:	92 2b       	or	r25, r18
   602a6:	90 93 56 00 	sts	0x0056, r25
   602aa:	81 30       	cpi	r24, 0x01	; 1
   602ac:	31 f4       	brne	.+12     	; 0x602ba <CLKSYS_AutoCalibration_Enable+0x2a>
   602ae:	80 91 68 00 	lds	r24, 0x0068
   602b2:	81 60       	ori	r24, 0x01	; 1
   602b4:	80 93 68 00 	sts	0x0068, r24
   602b8:	08 95       	ret
   602ba:	82 30       	cpi	r24, 0x02	; 2
   602bc:	11 f0       	breq	.+4      	; 0x602c2 <CLKSYS_AutoCalibration_Enable+0x32>
   602be:	84 30       	cpi	r24, 0x04	; 4
   602c0:	29 f4       	brne	.+10     	; 0x602cc <CLKSYS_AutoCalibration_Enable+0x3c>
   602c2:	80 91 60 00 	lds	r24, 0x0060
   602c6:	81 60       	ori	r24, 0x01	; 1
   602c8:	80 93 60 00 	sts	0x0060, r24
   602cc:	08 95       	ret

000602ce <nvm_wait_until_ready>:
   602ce:	80 91 cf 01 	lds	r24, 0x01CF
   602d2:	87 fd       	sbrc	r24, 7
   602d4:	fc cf       	rjmp	.-8      	; 0x602ce <nvm_wait_until_ready>
   602d6:	08 95       	ret

000602d8 <PMIC_SetVectorLocationToBoot>:
   602d8:	e0 ea       	ldi	r30, 0xA0	; 160
   602da:	f0 e0       	ldi	r31, 0x00	; 0
   602dc:	82 81       	ldd	r24, Z+2	; 0x02
   602de:	80 64       	ori	r24, 0x40	; 64
   602e0:	98 ed       	ldi	r25, 0xD8	; 216
   602e2:	94 bf       	out	0x34, r25	; 52
   602e4:	82 83       	std	Z+2, r24	; 0x02
   602e6:	08 95       	ret

000602e8 <PMIC_SetVectorLocationToApplication>:
   602e8:	e0 ea       	ldi	r30, 0xA0	; 160
   602ea:	f0 e0       	ldi	r31, 0x00	; 0
   602ec:	82 81       	ldd	r24, Z+2	; 0x02
   602ee:	8f 7b       	andi	r24, 0xBF	; 191
   602f0:	98 ed       	ldi	r25, 0xD8	; 216
   602f2:	94 bf       	out	0x34, r25	; 52
   602f4:	82 83       	std	Z+2, r24	; 0x02
   602f6:	08 95       	ret

000602f8 <BlockLoad>:
   602f8:	4f 92       	push	r4
   602fa:	5f 92       	push	r5
   602fc:	6f 92       	push	r6
   602fe:	7f 92       	push	r7
   60300:	8f 92       	push	r8
   60302:	9f 92       	push	r9
   60304:	af 92       	push	r10
   60306:	bf 92       	push	r11
   60308:	cf 92       	push	r12
   6030a:	df 92       	push	r13
   6030c:	ef 92       	push	r14
   6030e:	ff 92       	push	r15
   60310:	0f 93       	push	r16
   60312:	1f 93       	push	r17
   60314:	cf 93       	push	r28
   60316:	df 93       	push	r29
   60318:	cd b7       	in	r28, 0x3d	; 61
   6031a:	de b7       	in	r29, 0x3e	; 62
   6031c:	c4 50       	subi	r28, 0x04	; 4
   6031e:	d2 40       	sbci	r29, 0x02	; 2
   60320:	cd bf       	out	0x3d, r28	; 61
   60322:	de bf       	out	0x3e, r29	; 62
   60324:	4c 01       	movw	r8, r24
   60326:	65 34       	cpi	r22, 0x45	; 69
   60328:	09 f0       	breq	.+2      	; 0x6032c <BlockLoad+0x34>
   6032a:	ae c0       	rjmp	.+348    	; 0x60488 <BlockLoad+0x190>
   6032c:	cf 5f       	subi	r28, 0xFF	; 255
   6032e:	dd 4f       	sbci	r29, 0xFD	; 253
   60330:	28 83       	st	Y, r18
   60332:	c1 50       	subi	r28, 0x01	; 1
   60334:	d2 40       	sbci	r29, 0x02	; 2
   60336:	ce 5f       	subi	r28, 0xFE	; 254
   60338:	dd 4f       	sbci	r29, 0xFD	; 253
   6033a:	38 83       	st	Y, r19
   6033c:	c2 50       	subi	r28, 0x02	; 2
   6033e:	d2 40       	sbci	r29, 0x02	; 2
   60340:	cd 5f       	subi	r28, 0xFD	; 253
   60342:	dd 4f       	sbci	r29, 0xFD	; 253
   60344:	48 83       	st	Y, r20
   60346:	c3 50       	subi	r28, 0x03	; 3
   60348:	d2 40       	sbci	r29, 0x02	; 2
   6034a:	cc 5f       	subi	r28, 0xFC	; 252
   6034c:	dd 4f       	sbci	r29, 0xFD	; 253
   6034e:	58 83       	st	Y, r21
   60350:	c4 50       	subi	r28, 0x04	; 4
   60352:	d2 40       	sbci	r29, 0x02	; 2
   60354:	91 d2       	rcall	.+1314   	; 0x60878 <nvm_eeprom_flush_buffer>
   60356:	80 91 cc 01 	lds	r24, 0x01CC
   6035a:	87 7f       	andi	r24, 0xF7	; 247
   6035c:	80 93 cc 01 	sts	0x01CC, r24
   60360:	8e 01       	movw	r16, r28
   60362:	0f 5f       	subi	r16, 0xFF	; 255
   60364:	1f 4f       	sbci	r17, 0xFF	; 255
   60366:	c1 2c       	mov	r12, r1
   60368:	d1 2c       	mov	r13, r1
   6036a:	76 01       	movw	r14, r12
   6036c:	a1 2c       	mov	r10, r1
   6036e:	b1 2c       	mov	r11, r1
   60370:	cf 5f       	subi	r28, 0xFF	; 255
   60372:	dd 4f       	sbci	r29, 0xFD	; 253
   60374:	28 81       	ld	r18, Y
   60376:	c1 50       	subi	r28, 0x01	; 1
   60378:	d2 40       	sbci	r29, 0x02	; 2
   6037a:	ce 5f       	subi	r28, 0xFE	; 254
   6037c:	dd 4f       	sbci	r29, 0xFD	; 253
   6037e:	38 81       	ld	r19, Y
   60380:	c2 50       	subi	r28, 0x02	; 2
   60382:	d2 40       	sbci	r29, 0x02	; 2
   60384:	cd 5f       	subi	r28, 0xFD	; 253
   60386:	dd 4f       	sbci	r29, 0xFD	; 253
   60388:	48 81       	ld	r20, Y
   6038a:	c3 50       	subi	r28, 0x03	; 3
   6038c:	d2 40       	sbci	r29, 0x02	; 2
   6038e:	cc 5f       	subi	r28, 0xFC	; 252
   60390:	dd 4f       	sbci	r29, 0xFD	; 253
   60392:	58 81       	ld	r21, Y
   60394:	c4 50       	subi	r28, 0x04	; 4
   60396:	d2 40       	sbci	r29, 0x02	; 2
   60398:	c8 14       	cp	r12, r8
   6039a:	d9 04       	cpc	r13, r9
   6039c:	ea 04       	cpc	r14, r10
   6039e:	fb 04       	cpc	r15, r11
   603a0:	90 f5       	brcc	.+100    	; 0x60406 <BlockLoad+0x10e>
   603a2:	cf 5f       	subi	r28, 0xFF	; 255
   603a4:	dd 4f       	sbci	r29, 0xFD	; 253
   603a6:	28 83       	st	Y, r18
   603a8:	c1 50       	subi	r28, 0x01	; 1
   603aa:	d2 40       	sbci	r29, 0x02	; 2
   603ac:	ce 5f       	subi	r28, 0xFE	; 254
   603ae:	dd 4f       	sbci	r29, 0xFD	; 253
   603b0:	38 83       	st	Y, r19
   603b2:	c2 50       	subi	r28, 0x02	; 2
   603b4:	d2 40       	sbci	r29, 0x02	; 2
   603b6:	cd 5f       	subi	r28, 0xFD	; 253
   603b8:	dd 4f       	sbci	r29, 0xFD	; 253
   603ba:	48 83       	st	Y, r20
   603bc:	c3 50       	subi	r28, 0x03	; 3
   603be:	d2 40       	sbci	r29, 0x02	; 2
   603c0:	cc 5f       	subi	r28, 0xFC	; 252
   603c2:	dd 4f       	sbci	r29, 0xFD	; 253
   603c4:	58 83       	st	Y, r21
   603c6:	c4 50       	subi	r28, 0x04	; 4
   603c8:	d2 40       	sbci	r29, 0x02	; 2
   603ca:	05 d3       	rcall	.+1546   	; 0x609d6 <recchar>
   603cc:	f8 01       	movw	r30, r16
   603ce:	81 93       	st	Z+, r24
   603d0:	8f 01       	movw	r16, r30
   603d2:	ff ef       	ldi	r31, 0xFF	; 255
   603d4:	cf 1a       	sub	r12, r31
   603d6:	df 0a       	sbc	r13, r31
   603d8:	ef 0a       	sbc	r14, r31
   603da:	ff 0a       	sbc	r15, r31
   603dc:	cc 5f       	subi	r28, 0xFC	; 252
   603de:	dd 4f       	sbci	r29, 0xFD	; 253
   603e0:	58 81       	ld	r21, Y
   603e2:	c4 50       	subi	r28, 0x04	; 4
   603e4:	d2 40       	sbci	r29, 0x02	; 2
   603e6:	cd 5f       	subi	r28, 0xFD	; 253
   603e8:	dd 4f       	sbci	r29, 0xFD	; 253
   603ea:	48 81       	ld	r20, Y
   603ec:	c3 50       	subi	r28, 0x03	; 3
   603ee:	d2 40       	sbci	r29, 0x02	; 2
   603f0:	ce 5f       	subi	r28, 0xFE	; 254
   603f2:	dd 4f       	sbci	r29, 0xFD	; 253
   603f4:	38 81       	ld	r19, Y
   603f6:	c2 50       	subi	r28, 0x02	; 2
   603f8:	d2 40       	sbci	r29, 0x02	; 2
   603fa:	cf 5f       	subi	r28, 0xFF	; 255
   603fc:	dd 4f       	sbci	r29, 0xFD	; 253
   603fe:	28 81       	ld	r18, Y
   60400:	c1 50       	subi	r28, 0x01	; 1
   60402:	d2 40       	sbci	r29, 0x02	; 2
   60404:	c9 cf       	rjmp	.-110    	; 0x60398 <BlockLoad+0xa0>
   60406:	8e 01       	movw	r16, r28
   60408:	0f 5f       	subi	r16, 0xFF	; 255
   6040a:	1f 4f       	sbci	r17, 0xFF	; 255
   6040c:	c1 2c       	mov	r12, r1
   6040e:	d1 2c       	mov	r13, r1
   60410:	76 01       	movw	r14, r12
   60412:	c8 14       	cp	r12, r8
   60414:	d9 04       	cpc	r13, r9
   60416:	ea 04       	cpc	r14, r10
   60418:	fb 04       	cpc	r15, r11
   6041a:	08 f0       	brcs	.+2      	; 0x6041e <BlockLoad+0x126>
   6041c:	5f c0       	rjmp	.+190    	; 0x604dc <BlockLoad+0x1e4>
   6041e:	f8 01       	movw	r30, r16
   60420:	61 91       	ld	r22, Z+
   60422:	8f 01       	movw	r16, r30
   60424:	c6 01       	movw	r24, r12
   60426:	82 0f       	add	r24, r18
   60428:	93 1f       	adc	r25, r19
   6042a:	cf 5f       	subi	r28, 0xFF	; 255
   6042c:	dd 4f       	sbci	r29, 0xFD	; 253
   6042e:	28 83       	st	Y, r18
   60430:	c1 50       	subi	r28, 0x01	; 1
   60432:	d2 40       	sbci	r29, 0x02	; 2
   60434:	ce 5f       	subi	r28, 0xFE	; 254
   60436:	dd 4f       	sbci	r29, 0xFD	; 253
   60438:	38 83       	st	Y, r19
   6043a:	c2 50       	subi	r28, 0x02	; 2
   6043c:	d2 40       	sbci	r29, 0x02	; 2
   6043e:	cd 5f       	subi	r28, 0xFD	; 253
   60440:	dd 4f       	sbci	r29, 0xFD	; 253
   60442:	48 83       	st	Y, r20
   60444:	c3 50       	subi	r28, 0x03	; 3
   60446:	d2 40       	sbci	r29, 0x02	; 2
   60448:	cc 5f       	subi	r28, 0xFC	; 252
   6044a:	dd 4f       	sbci	r29, 0xFD	; 253
   6044c:	58 83       	st	Y, r21
   6044e:	c4 50       	subi	r28, 0x04	; 4
   60450:	d2 40       	sbci	r29, 0x02	; 2
   60452:	3d d2       	rcall	.+1146   	; 0x608ce <nvm_eeprom_write_byte>
   60454:	ff ef       	ldi	r31, 0xFF	; 255
   60456:	cf 1a       	sub	r12, r31
   60458:	df 0a       	sbc	r13, r31
   6045a:	ef 0a       	sbc	r14, r31
   6045c:	ff 0a       	sbc	r15, r31
   6045e:	cc 5f       	subi	r28, 0xFC	; 252
   60460:	dd 4f       	sbci	r29, 0xFD	; 253
   60462:	58 81       	ld	r21, Y
   60464:	c4 50       	subi	r28, 0x04	; 4
   60466:	d2 40       	sbci	r29, 0x02	; 2
   60468:	cd 5f       	subi	r28, 0xFD	; 253
   6046a:	dd 4f       	sbci	r29, 0xFD	; 253
   6046c:	48 81       	ld	r20, Y
   6046e:	c3 50       	subi	r28, 0x03	; 3
   60470:	d2 40       	sbci	r29, 0x02	; 2
   60472:	ce 5f       	subi	r28, 0xFE	; 254
   60474:	dd 4f       	sbci	r29, 0xFD	; 253
   60476:	38 81       	ld	r19, Y
   60478:	c2 50       	subi	r28, 0x02	; 2
   6047a:	d2 40       	sbci	r29, 0x02	; 2
   6047c:	cf 5f       	subi	r28, 0xFF	; 255
   6047e:	dd 4f       	sbci	r29, 0xFD	; 253
   60480:	28 81       	ld	r18, Y
   60482:	c1 50       	subi	r28, 0x01	; 1
   60484:	d2 40       	sbci	r29, 0x02	; 2
   60486:	c5 cf       	rjmp	.-118    	; 0x60412 <BlockLoad+0x11a>
   60488:	66 34       	cpi	r22, 0x46	; 70
   6048a:	51 f5       	brne	.+84     	; 0x604e0 <BlockLoad+0x1e8>
   6048c:	29 01       	movw	r4, r18
   6048e:	3a 01       	movw	r6, r20
   60490:	44 0c       	add	r4, r4
   60492:	55 1c       	adc	r5, r5
   60494:	66 1c       	adc	r6, r6
   60496:	77 1c       	adc	r7, r7
   60498:	1a df       	rcall	.-460    	; 0x602ce <nvm_wait_until_ready>
   6049a:	46 e2       	ldi	r20, 0x26	; 38
   6049c:	60 e0       	ldi	r22, 0x00	; 0
   6049e:	70 e0       	ldi	r23, 0x00	; 0
   604a0:	cb 01       	movw	r24, r22
   604a2:	a2 d2       	rcall	.+1348   	; 0x609e8 <_etext>
   604a4:	c1 2c       	mov	r12, r1
   604a6:	d1 2c       	mov	r13, r1
   604a8:	76 01       	movw	r14, r12
   604aa:	c8 14       	cp	r12, r8
   604ac:	d9 04       	cpc	r13, r9
   604ae:	80 f4       	brcc	.+32     	; 0x604d0 <BlockLoad+0x1d8>
   604b0:	92 d2       	rcall	.+1316   	; 0x609d6 <recchar>
   604b2:	08 2f       	mov	r16, r24
   604b4:	10 e0       	ldi	r17, 0x00	; 0
   604b6:	8f d2       	rcall	.+1310   	; 0x609d6 <recchar>
   604b8:	18 2b       	or	r17, r24
   604ba:	09 df       	rcall	.-494    	; 0x602ce <nvm_wait_until_ready>
   604bc:	a8 01       	movw	r20, r16
   604be:	c7 01       	movw	r24, r14
   604c0:	b6 01       	movw	r22, r12
   604c2:	a1 d2       	rcall	.+1346   	; 0x60a06 <nvm_flash_load_word_to_buffer>
   604c4:	82 e0       	ldi	r24, 0x02	; 2
   604c6:	c8 0e       	add	r12, r24
   604c8:	d1 1c       	adc	r13, r1
   604ca:	e1 1c       	adc	r14, r1
   604cc:	f1 1c       	adc	r15, r1
   604ce:	ed cf       	rjmp	.-38     	; 0x604aa <BlockLoad+0x1b2>
   604d0:	fe de       	rcall	.-516    	; 0x602ce <nvm_wait_until_ready>
   604d2:	45 e2       	ldi	r20, 0x25	; 37
   604d4:	c3 01       	movw	r24, r6
   604d6:	b2 01       	movw	r22, r4
   604d8:	87 d2       	rcall	.+1294   	; 0x609e8 <_etext>
   604da:	f9 de       	rcall	.-526    	; 0x602ce <nvm_wait_until_ready>
   604dc:	8d e0       	ldi	r24, 0x0D	; 13
   604de:	01 c0       	rjmp	.+2      	; 0x604e2 <BlockLoad+0x1ea>
   604e0:	8f e3       	ldi	r24, 0x3F	; 63
   604e2:	cc 5f       	subi	r28, 0xFC	; 252
   604e4:	dd 4f       	sbci	r29, 0xFD	; 253
   604e6:	cd bf       	out	0x3d, r28	; 61
   604e8:	de bf       	out	0x3e, r29	; 62
   604ea:	df 91       	pop	r29
   604ec:	cf 91       	pop	r28
   604ee:	1f 91       	pop	r17
   604f0:	0f 91       	pop	r16
   604f2:	ff 90       	pop	r15
   604f4:	ef 90       	pop	r14
   604f6:	df 90       	pop	r13
   604f8:	cf 90       	pop	r12
   604fa:	bf 90       	pop	r11
   604fc:	af 90       	pop	r10
   604fe:	9f 90       	pop	r9
   60500:	8f 90       	pop	r8
   60502:	7f 90       	pop	r7
   60504:	6f 90       	pop	r6
   60506:	5f 90       	pop	r5
   60508:	4f 90       	pop	r4
   6050a:	08 95       	ret

0006050c <BlockRead>:
   6050c:	cf 92       	push	r12
   6050e:	df 92       	push	r13
   60510:	ef 92       	push	r14
   60512:	ff 92       	push	r15
   60514:	0f 93       	push	r16
   60516:	1f 93       	push	r17
   60518:	cf 93       	push	r28
   6051a:	df 93       	push	r29
   6051c:	00 d0       	rcall	.+0      	; 0x6051e <BlockRead+0x12>
   6051e:	1f 92       	push	r1
   60520:	cd b7       	in	r28, 0x3d	; 61
   60522:	de b7       	in	r29, 0x3e	; 62
   60524:	8c 01       	movw	r16, r24
   60526:	65 34       	cpi	r22, 0x45	; 69
   60528:	19 f5       	brne	.+70     	; 0x60570 <BlockRead+0x64>
   6052a:	80 91 cc 01 	lds	r24, 0x01CC
   6052e:	87 7f       	andi	r24, 0xF7	; 247
   60530:	80 93 cc 01 	sts	0x01CC, r24
   60534:	29 83       	std	Y+1, r18	; 0x01
   60536:	3a 83       	std	Y+2, r19	; 0x02
   60538:	4b 83       	std	Y+3, r20	; 0x03
   6053a:	5c 83       	std	Y+4, r21	; 0x04
   6053c:	9d d1       	rcall	.+826    	; 0x60878 <nvm_eeprom_flush_buffer>
   6053e:	5c 81       	ldd	r21, Y+4	; 0x04
   60540:	4b 81       	ldd	r20, Y+3	; 0x03
   60542:	3a 81       	ldd	r19, Y+2	; 0x02
   60544:	29 81       	ldd	r18, Y+1	; 0x01
   60546:	c9 01       	movw	r24, r18
   60548:	29 83       	std	Y+1, r18	; 0x01
   6054a:	3a 83       	std	Y+2, r19	; 0x02
   6054c:	4b 83       	std	Y+3, r20	; 0x03
   6054e:	5c 83       	std	Y+4, r21	; 0x04
   60550:	82 d1       	rcall	.+772    	; 0x60856 <nvm_eeprom_read_byte>
   60552:	3a d2       	rcall	.+1140   	; 0x609c8 <sendchar>
   60554:	29 81       	ldd	r18, Y+1	; 0x01
   60556:	3a 81       	ldd	r19, Y+2	; 0x02
   60558:	4b 81       	ldd	r20, Y+3	; 0x03
   6055a:	5c 81       	ldd	r21, Y+4	; 0x04
   6055c:	2f 5f       	subi	r18, 0xFF	; 255
   6055e:	3f 4f       	sbci	r19, 0xFF	; 255
   60560:	4f 4f       	sbci	r20, 0xFF	; 255
   60562:	5f 4f       	sbci	r21, 0xFF	; 255
   60564:	01 50       	subi	r16, 0x01	; 1
   60566:	11 09       	sbc	r17, r1
   60568:	01 15       	cp	r16, r1
   6056a:	11 05       	cpc	r17, r1
   6056c:	61 f7       	brne	.-40     	; 0x60546 <BlockRead+0x3a>
   6056e:	1f c0       	rjmp	.+62     	; 0x605ae <BlockRead+0xa2>
   60570:	66 34       	cpi	r22, 0x46	; 70
   60572:	e9 f4       	brne	.+58     	; 0x605ae <BlockRead+0xa2>
   60574:	69 01       	movw	r12, r18
   60576:	7a 01       	movw	r14, r20
   60578:	cc 0c       	add	r12, r12
   6057a:	dd 1c       	adc	r13, r13
   6057c:	ee 1c       	adc	r14, r14
   6057e:	ff 1c       	adc	r15, r15
   60580:	eb be       	out	0x3b, r14	; 59
   60582:	f6 01       	movw	r30, r12
   60584:	87 91       	elpm	r24, Z+
   60586:	20 d2       	rcall	.+1088   	; 0x609c8 <sendchar>
   60588:	d7 01       	movw	r26, r14
   6058a:	c6 01       	movw	r24, r12
   6058c:	01 96       	adiw	r24, 0x01	; 1
   6058e:	a1 1d       	adc	r26, r1
   60590:	b1 1d       	adc	r27, r1
   60592:	ab bf       	out	0x3b, r26	; 59
   60594:	fc 01       	movw	r30, r24
   60596:	87 91       	elpm	r24, Z+
   60598:	17 d2       	rcall	.+1070   	; 0x609c8 <sendchar>
   6059a:	82 e0       	ldi	r24, 0x02	; 2
   6059c:	c8 0e       	add	r12, r24
   6059e:	d1 1c       	adc	r13, r1
   605a0:	e1 1c       	adc	r14, r1
   605a2:	f1 1c       	adc	r15, r1
   605a4:	02 50       	subi	r16, 0x02	; 2
   605a6:	11 09       	sbc	r17, r1
   605a8:	01 15       	cp	r16, r1
   605aa:	11 05       	cpc	r17, r1
   605ac:	49 f7       	brne	.-46     	; 0x60580 <BlockRead+0x74>
   605ae:	24 96       	adiw	r28, 0x04	; 4
   605b0:	cd bf       	out	0x3d, r28	; 61
   605b2:	de bf       	out	0x3e, r29	; 62
   605b4:	df 91       	pop	r29
   605b6:	cf 91       	pop	r28
   605b8:	1f 91       	pop	r17
   605ba:	0f 91       	pop	r16
   605bc:	ff 90       	pop	r15
   605be:	ef 90       	pop	r14
   605c0:	df 90       	pop	r13
   605c2:	cf 90       	pop	r12
   605c4:	08 95       	ret

000605c6 <main>:
   605c6:	88 de       	rcall	.-752    	; 0x602d8 <PMIC_SetVectorLocationToBoot>
   605c8:	80 91 50 00 	lds	r24, 0x0050
   605cc:	84 60       	ori	r24, 0x04	; 4
   605ce:	80 93 50 00 	sts	0x0050, r24
   605d2:	80 91 51 00 	lds	r24, 0x0051
   605d6:	82 ff       	sbrs	r24, 2
   605d8:	fc cf       	rjmp	.-8      	; 0x605d2 <main+0xc>
   605da:	80 91 50 00 	lds	r24, 0x0050
   605de:	82 60       	ori	r24, 0x02	; 2
   605e0:	80 93 50 00 	sts	0x0050, r24
   605e4:	80 91 51 00 	lds	r24, 0x0051
   605e8:	81 ff       	sbrs	r24, 1
   605ea:	fc cf       	rjmp	.-8      	; 0x605e4 <main+0x1e>
   605ec:	81 e0       	ldi	r24, 0x01	; 1
   605ee:	3e de       	rcall	.-900    	; 0x6026c <CLKSYS_Main_ClockSource_Select>
   605f0:	81 e0       	ldi	r24, 0x01	; 1
   605f2:	32 de       	rcall	.-924    	; 0x60258 <CLKSYS_Disable>
   605f4:	61 e0       	ldi	r22, 0x01	; 1
   605f6:	82 e0       	ldi	r24, 0x02	; 2
   605f8:	4b de       	rcall	.-874    	; 0x60290 <CLKSYS_AutoCalibration_Enable>
   605fa:	80 91 cc 01 	lds	r24, 0x01CC
   605fe:	87 7f       	andi	r24, 0xF7	; 247
   60600:	80 93 cc 01 	sts	0x01CC, r24
   60604:	80 91 84 06 	lds	r24, 0x0684
   60608:	80 61       	ori	r24, 0x10	; 16
   6060a:	80 93 84 06 	sts	0x0684, r24
   6060e:	c7 d1       	rcall	.+910    	; 0x6099e <initbootuart>
   60610:	c0 e0       	ldi	r28, 0x00	; 0
   60612:	d0 e0       	ldi	r29, 0x00	; 0
   60614:	c1 2c       	mov	r12, r1
   60616:	d1 2c       	mov	r13, r1
   60618:	76 01       	movw	r14, r12
   6061a:	dd d1       	rcall	.+954    	; 0x609d6 <recchar>
   6061c:	81 36       	cpi	r24, 0x61	; 97
   6061e:	11 f4       	brne	.+4      	; 0x60624 <main+0x5e>
   60620:	89 e5       	ldi	r24, 0x59	; 89
   60622:	02 c1       	rjmp	.+516    	; 0x60828 <main+0x262>
   60624:	81 34       	cpi	r24, 0x41	; 65
   60626:	61 f4       	brne	.+24     	; 0x60640 <main+0x7a>
   60628:	d6 d1       	rcall	.+940    	; 0x609d6 <recchar>
   6062a:	c8 2e       	mov	r12, r24
   6062c:	d1 2c       	mov	r13, r1
   6062e:	e1 2c       	mov	r14, r1
   60630:	f1 2c       	mov	r15, r1
   60632:	fe 2c       	mov	r15, r14
   60634:	ed 2c       	mov	r14, r13
   60636:	dc 2c       	mov	r13, r12
   60638:	cc 24       	eor	r12, r12
   6063a:	cd d1       	rcall	.+922    	; 0x609d6 <recchar>
   6063c:	c8 2a       	or	r12, r24
   6063e:	d0 c0       	rjmp	.+416    	; 0x607e0 <main+0x21a>
   60640:	88 34       	cpi	r24, 0x48	; 72
   60642:	b1 f4       	brne	.+44     	; 0x60670 <main+0xaa>
   60644:	c8 d1       	rcall	.+912    	; 0x609d6 <recchar>
   60646:	c8 2e       	mov	r12, r24
   60648:	d1 2c       	mov	r13, r1
   6064a:	e1 2c       	mov	r14, r1
   6064c:	f1 2c       	mov	r15, r1
   6064e:	76 01       	movw	r14, r12
   60650:	dd 24       	eor	r13, r13
   60652:	cc 24       	eor	r12, r12
   60654:	c0 d1       	rcall	.+896    	; 0x609d6 <recchar>
   60656:	88 2e       	mov	r8, r24
   60658:	be d1       	rcall	.+892    	; 0x609d6 <recchar>
   6065a:	c8 2a       	or	r12, r24
   6065c:	91 2c       	mov	r9, r1
   6065e:	98 2c       	mov	r9, r8
   60660:	88 24       	eor	r8, r8
   60662:	a1 2c       	mov	r10, r1
   60664:	b1 2c       	mov	r11, r1
   60666:	c8 28       	or	r12, r8
   60668:	d9 28       	or	r13, r9
   6066a:	ea 28       	or	r14, r10
   6066c:	fb 28       	or	r15, r11
   6066e:	b8 c0       	rjmp	.+368    	; 0x607e0 <main+0x21a>
   60670:	85 36       	cpi	r24, 0x65	; 101
   60672:	a9 f4       	brne	.+42     	; 0x6069e <main+0xd8>
   60674:	c1 2c       	mov	r12, r1
   60676:	d1 2c       	mov	r13, r1
   60678:	76 01       	movw	r14, r12
   6067a:	29 de       	rcall	.-942    	; 0x602ce <nvm_wait_until_ready>
   6067c:	28 de       	rcall	.-944    	; 0x602ce <nvm_wait_until_ready>
   6067e:	42 e2       	ldi	r20, 0x22	; 34
   60680:	c7 01       	movw	r24, r14
   60682:	b6 01       	movw	r22, r12
   60684:	b1 d1       	rcall	.+866    	; 0x609e8 <_etext>
   60686:	82 e0       	ldi	r24, 0x02	; 2
   60688:	d8 0e       	add	r13, r24
   6068a:	e1 1c       	adc	r14, r1
   6068c:	f1 1c       	adc	r15, r1
   6068e:	c1 14       	cp	r12, r1
   60690:	d1 04       	cpc	r13, r1
   60692:	e6 e0       	ldi	r30, 0x06	; 6
   60694:	ee 06       	cpc	r14, r30
   60696:	f1 04       	cpc	r15, r1
   60698:	81 f7       	brne	.-32     	; 0x6067a <main+0xb4>
   6069a:	59 d1       	rcall	.+690    	; 0x6094e <nvm_eeprom_erase_all>
   6069c:	a1 c0       	rjmp	.+322    	; 0x607e0 <main+0x21a>
   6069e:	82 36       	cpi	r24, 0x62	; 98
   606a0:	21 f4       	brne	.+8      	; 0x606aa <main+0xe4>
   606a2:	89 e5       	ldi	r24, 0x59	; 89
   606a4:	91 d1       	rcall	.+802    	; 0x609c8 <sendchar>
   606a6:	82 e0       	ldi	r24, 0x02	; 2
   606a8:	91 c0       	rjmp	.+290    	; 0x607cc <main+0x206>
   606aa:	82 34       	cpi	r24, 0x42	; 66
   606ac:	71 f4       	brne	.+28     	; 0x606ca <main+0x104>
   606ae:	93 d1       	rcall	.+806    	; 0x609d6 <recchar>
   606b0:	c8 2f       	mov	r28, r24
   606b2:	91 d1       	rcall	.+802    	; 0x609d6 <recchar>
   606b4:	d0 e0       	ldi	r29, 0x00	; 0
   606b6:	dc 2f       	mov	r29, r28
   606b8:	cc 27       	eor	r28, r28
   606ba:	c8 2b       	or	r28, r24
   606bc:	8c d1       	rcall	.+792    	; 0x609d6 <recchar>
   606be:	a7 01       	movw	r20, r14
   606c0:	96 01       	movw	r18, r12
   606c2:	68 2f       	mov	r22, r24
   606c4:	ce 01       	movw	r24, r28
   606c6:	18 de       	rcall	.-976    	; 0x602f8 <BlockLoad>
   606c8:	af c0       	rjmp	.+350    	; 0x60828 <main+0x262>
   606ca:	87 36       	cpi	r24, 0x67	; 103
   606cc:	71 f4       	brne	.+28     	; 0x606ea <main+0x124>
   606ce:	83 d1       	rcall	.+774    	; 0x609d6 <recchar>
   606d0:	c8 2f       	mov	r28, r24
   606d2:	81 d1       	rcall	.+770    	; 0x609d6 <recchar>
   606d4:	d0 e0       	ldi	r29, 0x00	; 0
   606d6:	dc 2f       	mov	r29, r28
   606d8:	cc 27       	eor	r28, r28
   606da:	c8 2b       	or	r28, r24
   606dc:	7c d1       	rcall	.+760    	; 0x609d6 <recchar>
   606de:	a7 01       	movw	r20, r14
   606e0:	96 01       	movw	r18, r12
   606e2:	68 2f       	mov	r22, r24
   606e4:	ce 01       	movw	r24, r28
   606e6:	12 df       	rcall	.-476    	; 0x6050c <BlockRead>
   606e8:	98 cf       	rjmp	.-208    	; 0x6061a <main+0x54>
   606ea:	82 35       	cpi	r24, 0x52	; 82
   606ec:	a9 f4       	brne	.+42     	; 0x60718 <main+0x152>
   606ee:	ef dd       	rcall	.-1058   	; 0x602ce <nvm_wait_until_ready>
   606f0:	46 01       	movw	r8, r12
   606f2:	57 01       	movw	r10, r14
   606f4:	88 0c       	add	r8, r8
   606f6:	99 1c       	adc	r9, r9
   606f8:	aa 1c       	adc	r10, r10
   606fa:	bb 1c       	adc	r11, r11
   606fc:	d5 01       	movw	r26, r10
   606fe:	c4 01       	movw	r24, r8
   60700:	01 96       	adiw	r24, 0x01	; 1
   60702:	a1 1d       	adc	r26, r1
   60704:	b1 1d       	adc	r27, r1
   60706:	ab bf       	out	0x3b, r26	; 59
   60708:	fc 01       	movw	r30, r24
   6070a:	87 91       	elpm	r24, Z+
   6070c:	5d d1       	rcall	.+698    	; 0x609c8 <sendchar>
   6070e:	ab be       	out	0x3b, r10	; 59
   60710:	f4 01       	movw	r30, r8
   60712:	87 91       	elpm	r24, Z+
   60714:	59 d1       	rcall	.+690    	; 0x609c8 <sendchar>
   60716:	33 c0       	rjmp	.+102    	; 0x6077e <main+0x1b8>
   60718:	83 36       	cpi	r24, 0x63	; 99
   6071a:	21 f4       	brne	.+8      	; 0x60724 <main+0x15e>
   6071c:	5c d1       	rcall	.+696    	; 0x609d6 <recchar>
   6071e:	c8 2f       	mov	r28, r24
   60720:	d0 e0       	ldi	r29, 0x00	; 0
   60722:	5e c0       	rjmp	.+188    	; 0x607e0 <main+0x21a>
   60724:	83 34       	cpi	r24, 0x43	; 67
   60726:	89 f4       	brne	.+34     	; 0x6074a <main+0x184>
   60728:	56 d1       	rcall	.+684    	; 0x609d6 <recchar>
   6072a:	d8 2b       	or	r29, r24
   6072c:	d0 dd       	rcall	.-1120   	; 0x602ce <nvm_wait_until_ready>
   6072e:	c7 01       	movw	r24, r14
   60730:	b6 01       	movw	r22, r12
   60732:	66 0f       	add	r22, r22
   60734:	77 1f       	adc	r23, r23
   60736:	88 1f       	adc	r24, r24
   60738:	99 1f       	adc	r25, r25
   6073a:	ae 01       	movw	r20, r28
   6073c:	64 d1       	rcall	.+712    	; 0x60a06 <nvm_flash_load_word_to_buffer>
   6073e:	8f ef       	ldi	r24, 0xFF	; 255
   60740:	c8 1a       	sub	r12, r24
   60742:	d8 0a       	sbc	r13, r24
   60744:	e8 0a       	sbc	r14, r24
   60746:	f8 0a       	sbc	r15, r24
   60748:	4b c0       	rjmp	.+150    	; 0x607e0 <main+0x21a>
   6074a:	8d 36       	cpi	r24, 0x6D	; 109
   6074c:	91 f4       	brne	.+36     	; 0x60772 <main+0x1ac>
   6074e:	c1 14       	cp	r12, r1
   60750:	d1 04       	cpc	r13, r1
   60752:	e3 e0       	ldi	r30, 0x03	; 3
   60754:	ee 06       	cpc	r14, r30
   60756:	f1 04       	cpc	r15, r1
   60758:	08 f0       	brcs	.+2      	; 0x6075c <main+0x196>
   6075a:	65 c0       	rjmp	.+202    	; 0x60826 <main+0x260>
   6075c:	b8 dd       	rcall	.-1168   	; 0x602ce <nvm_wait_until_ready>
   6075e:	b7 dd       	rcall	.-1170   	; 0x602ce <nvm_wait_until_ready>
   60760:	45 e2       	ldi	r20, 0x25	; 37
   60762:	c7 01       	movw	r24, r14
   60764:	b6 01       	movw	r22, r12
   60766:	66 0f       	add	r22, r22
   60768:	77 1f       	adc	r23, r23
   6076a:	88 1f       	adc	r24, r24
   6076c:	99 1f       	adc	r25, r25
   6076e:	3c d1       	rcall	.+632    	; 0x609e8 <_etext>
   60770:	37 c0       	rjmp	.+110    	; 0x607e0 <main+0x21a>
   60772:	84 34       	cpi	r24, 0x44	; 68
   60774:	51 f4       	brne	.+20     	; 0x6078a <main+0x1c4>
   60776:	2f d1       	rcall	.+606    	; 0x609d6 <recchar>
   60778:	68 2f       	mov	r22, r24
   6077a:	c6 01       	movw	r24, r12
   6077c:	a8 d0       	rcall	.+336    	; 0x608ce <nvm_eeprom_write_byte>
   6077e:	ff ef       	ldi	r31, 0xFF	; 255
   60780:	cf 1a       	sub	r12, r31
   60782:	df 0a       	sbc	r13, r31
   60784:	ef 0a       	sbc	r14, r31
   60786:	ff 0a       	sbc	r15, r31
   60788:	48 cf       	rjmp	.-368    	; 0x6061a <main+0x54>
   6078a:	84 36       	cpi	r24, 0x64	; 100
   6078c:	49 f4       	brne	.+18     	; 0x607a0 <main+0x1da>
   6078e:	c6 01       	movw	r24, r12
   60790:	62 d0       	rcall	.+196    	; 0x60856 <nvm_eeprom_read_byte>
   60792:	1a d1       	rcall	.+564    	; 0x609c8 <sendchar>
   60794:	8f ef       	ldi	r24, 0xFF	; 255
   60796:	c8 1a       	sub	r12, r24
   60798:	d8 0a       	sbc	r13, r24
   6079a:	e8 0a       	sbc	r14, r24
   6079c:	f8 0a       	sbc	r15, r24
   6079e:	3d cf       	rjmp	.-390    	; 0x6061a <main+0x54>
   607a0:	80 35       	cpi	r24, 0x50	; 80
   607a2:	f1 f0       	breq	.+60     	; 0x607e0 <main+0x21a>
   607a4:	8c 34       	cpi	r24, 0x4C	; 76
   607a6:	e1 f0       	breq	.+56     	; 0x607e0 <main+0x21a>
   607a8:	85 34       	cpi	r24, 0x45	; 69
   607aa:	49 f4       	brne	.+18     	; 0x607be <main+0x1f8>
   607ac:	90 dd       	rcall	.-1248   	; 0x602ce <nvm_wait_until_ready>
   607ae:	8d e0       	ldi	r24, 0x0D	; 13
   607b0:	0b d1       	rcall	.+534    	; 0x609c8 <sendchar>
   607b2:	9a dd       	rcall	.-1228   	; 0x602e8 <PMIC_SetVectorLocationToApplication>
   607b4:	1c be       	out	0x3c, r1	; 60
   607b6:	e0 e0       	ldi	r30, 0x00	; 0
   607b8:	f0 e0       	ldi	r31, 0x00	; 0
   607ba:	19 95       	eicall
   607bc:	2e cf       	rjmp	.-420    	; 0x6061a <main+0x54>
   607be:	80 37       	cpi	r24, 0x70	; 112
   607c0:	11 f4       	brne	.+4      	; 0x607c6 <main+0x200>
   607c2:	83 e5       	ldi	r24, 0x53	; 83
   607c4:	31 c0       	rjmp	.+98     	; 0x60828 <main+0x262>
   607c6:	84 37       	cpi	r24, 0x74	; 116
   607c8:	21 f4       	brne	.+8      	; 0x607d2 <main+0x20c>
   607ca:	8a ef       	ldi	r24, 0xFA	; 250
   607cc:	fd d0       	rcall	.+506    	; 0x609c8 <sendchar>
   607ce:	80 e0       	ldi	r24, 0x00	; 0
   607d0:	2b c0       	rjmp	.+86     	; 0x60828 <main+0x262>
   607d2:	98 e8       	ldi	r25, 0x88	; 136
   607d4:	98 0f       	add	r25, r24
   607d6:	92 30       	cpi	r25, 0x02	; 2
   607d8:	10 f0       	brcs	.+4      	; 0x607de <main+0x218>
   607da:	84 35       	cpi	r24, 0x54	; 84
   607dc:	19 f4       	brne	.+6      	; 0x607e4 <main+0x21e>
   607de:	fb d0       	rcall	.+502    	; 0x609d6 <recchar>
   607e0:	8d e0       	ldi	r24, 0x0D	; 13
   607e2:	22 c0       	rjmp	.+68     	; 0x60828 <main+0x262>
   607e4:	83 35       	cpi	r24, 0x53	; 83
   607e6:	71 f4       	brne	.+28     	; 0x60804 <main+0x23e>
   607e8:	81 e4       	ldi	r24, 0x41	; 65
   607ea:	ee d0       	rcall	.+476    	; 0x609c8 <sendchar>
   607ec:	86 e5       	ldi	r24, 0x56	; 86
   607ee:	ec d0       	rcall	.+472    	; 0x609c8 <sendchar>
   607f0:	82 e5       	ldi	r24, 0x52	; 82
   607f2:	ea d0       	rcall	.+468    	; 0x609c8 <sendchar>
   607f4:	82 e4       	ldi	r24, 0x42	; 66
   607f6:	e8 d0       	rcall	.+464    	; 0x609c8 <sendchar>
   607f8:	8f e4       	ldi	r24, 0x4F	; 79
   607fa:	e6 d0       	rcall	.+460    	; 0x609c8 <sendchar>
   607fc:	8f e4       	ldi	r24, 0x4F	; 79
   607fe:	e4 d0       	rcall	.+456    	; 0x609c8 <sendchar>
   60800:	84 e5       	ldi	r24, 0x54	; 84
   60802:	12 c0       	rjmp	.+36     	; 0x60828 <main+0x262>
   60804:	86 35       	cpi	r24, 0x56	; 86
   60806:	21 f4       	brne	.+8      	; 0x60810 <main+0x24a>
   60808:	81 e3       	ldi	r24, 0x31	; 49
   6080a:	de d0       	rcall	.+444    	; 0x609c8 <sendchar>
   6080c:	87 e3       	ldi	r24, 0x37	; 55
   6080e:	0c c0       	rjmp	.+24     	; 0x60828 <main+0x262>
   60810:	83 37       	cpi	r24, 0x73	; 115
   60812:	31 f4       	brne	.+12     	; 0x60820 <main+0x25a>
   60814:	85 e4       	ldi	r24, 0x45	; 69
   60816:	d8 d0       	rcall	.+432    	; 0x609c8 <sendchar>
   60818:	88 e9       	ldi	r24, 0x98	; 152
   6081a:	d6 d0       	rcall	.+428    	; 0x609c8 <sendchar>
   6081c:	8e e1       	ldi	r24, 0x1E	; 30
   6081e:	04 c0       	rjmp	.+8      	; 0x60828 <main+0x262>
   60820:	8b 31       	cpi	r24, 0x1B	; 27
   60822:	09 f4       	brne	.+2      	; 0x60826 <main+0x260>
   60824:	fa ce       	rjmp	.-524    	; 0x6061a <main+0x54>
   60826:	8f e3       	ldi	r24, 0x3F	; 63
   60828:	cf d0       	rcall	.+414    	; 0x609c8 <sendchar>
   6082a:	f7 ce       	rjmp	.-530    	; 0x6061a <main+0x54>

0006082c <nvm_wait_until_ready>:
   6082c:	80 91 cf 01 	lds	r24, 0x01CF
   60830:	87 fd       	sbrc	r24, 7
   60832:	fc cf       	rjmp	.-8      	; 0x6082c <nvm_wait_until_ready>
   60834:	08 95       	ret

00060836 <nvm_issue_command>:
   60836:	1f 93       	push	r17
   60838:	cf 93       	push	r28
   6083a:	df 93       	push	r29
   6083c:	c0 ec       	ldi	r28, 0xC0	; 192
   6083e:	d1 e0       	ldi	r29, 0x01	; 1
   60840:	1a 85       	ldd	r17, Y+10	; 0x0a
   60842:	8a 87       	std	Y+10, r24	; 0x0a
   60844:	61 e0       	ldi	r22, 0x01	; 1
   60846:	8b ec       	ldi	r24, 0xCB	; 203
   60848:	91 e0       	ldi	r25, 0x01	; 1
   6084a:	eb dc       	rcall	.-1578   	; 0x60222 <ccp_write_io>
   6084c:	1a 87       	std	Y+10, r17	; 0x0a
   6084e:	df 91       	pop	r29
   60850:	cf 91       	pop	r28
   60852:	1f 91       	pop	r17
   60854:	08 95       	ret

00060856 <nvm_eeprom_read_byte>:
   60856:	cf 93       	push	r28
   60858:	df 93       	push	r29
   6085a:	ec 01       	movw	r28, r24
   6085c:	e7 df       	rcall	.-50     	; 0x6082c <nvm_wait_until_ready>
   6085e:	ec ec       	ldi	r30, 0xCC	; 204
   60860:	f1 e0       	ldi	r31, 0x01	; 1
   60862:	80 81       	ld	r24, Z
   60864:	88 60       	ori	r24, 0x08	; 8
   60866:	80 83       	st	Z, r24
   60868:	d0 5f       	subi	r29, 0xF0	; 240
   6086a:	88 81       	ld	r24, Y
   6086c:	90 81       	ld	r25, Z
   6086e:	97 7f       	andi	r25, 0xF7	; 247
   60870:	90 83       	st	Z, r25
   60872:	df 91       	pop	r29
   60874:	cf 91       	pop	r28
   60876:	08 95       	ret

00060878 <nvm_eeprom_flush_buffer>:
   60878:	d9 df       	rcall	.-78     	; 0x6082c <nvm_wait_until_ready>
   6087a:	80 91 cf 01 	lds	r24, 0x01CF
   6087e:	81 ff       	sbrs	r24, 1
   60880:	07 c0       	rjmp	.+14     	; 0x60890 <nvm_eeprom_flush_buffer+0x18>
   60882:	86 e3       	ldi	r24, 0x36	; 54
   60884:	80 93 ca 01 	sts	0x01CA, r24
   60888:	61 e0       	ldi	r22, 0x01	; 1
   6088a:	8b ec       	ldi	r24, 0xCB	; 203
   6088c:	91 e0       	ldi	r25, 0x01	; 1
   6088e:	c9 cc       	rjmp	.-1646   	; 0x60222 <ccp_write_io>
   60890:	08 95       	ret

00060892 <nvm_eeprom_load_byte_to_buffer>:
   60892:	cf 93       	push	r28
   60894:	df 93       	push	r29
   60896:	1f 92       	push	r1
   60898:	1f 92       	push	r1
   6089a:	cd b7       	in	r28, 0x3d	; 61
   6089c:	de b7       	in	r29, 0x3e	; 62
   6089e:	6a 83       	std	Y+2, r22	; 0x02
   608a0:	89 83       	std	Y+1, r24	; 0x01
   608a2:	c4 df       	rcall	.-120    	; 0x6082c <nvm_wait_until_ready>
   608a4:	2c ec       	ldi	r18, 0xCC	; 204
   608a6:	31 e0       	ldi	r19, 0x01	; 1
   608a8:	d9 01       	movw	r26, r18
   608aa:	9c 91       	ld	r25, X
   608ac:	98 60       	ori	r25, 0x08	; 8
   608ae:	9c 93       	st	X, r25
   608b0:	89 81       	ldd	r24, Y+1	; 0x01
   608b2:	a8 2f       	mov	r26, r24
   608b4:	b0 e0       	ldi	r27, 0x00	; 0
   608b6:	b0 5f       	subi	r27, 0xF0	; 240
   608b8:	6a 81       	ldd	r22, Y+2	; 0x02
   608ba:	6c 93       	st	X, r22
   608bc:	f9 01       	movw	r30, r18
   608be:	80 81       	ld	r24, Z
   608c0:	87 7f       	andi	r24, 0xF7	; 247
   608c2:	80 83       	st	Z, r24
   608c4:	0f 90       	pop	r0
   608c6:	0f 90       	pop	r0
   608c8:	df 91       	pop	r29
   608ca:	cf 91       	pop	r28
   608cc:	08 95       	ret

000608ce <nvm_eeprom_write_byte>:
   608ce:	ef 92       	push	r14
   608d0:	ff 92       	push	r15
   608d2:	0f 93       	push	r16
   608d4:	1f 93       	push	r17
   608d6:	cf 93       	push	r28
   608d8:	df 93       	push	r29
   608da:	1f 92       	push	r1
   608dc:	1f 92       	push	r1
   608de:	cd b7       	in	r28, 0x3d	; 61
   608e0:	de b7       	in	r29, 0x3e	; 62
   608e2:	18 2f       	mov	r17, r24
   608e4:	20 ec       	ldi	r18, 0xC0	; 192
   608e6:	e2 2e       	mov	r14, r18
   608e8:	ff 24       	eor	r15, r15
   608ea:	f3 94       	inc	r15
   608ec:	f7 01       	movw	r30, r14
   608ee:	02 85       	ldd	r16, Z+10	; 0x0a
   608f0:	69 83       	std	Y+1, r22	; 0x01
   608f2:	9a 83       	std	Y+2, r25	; 0x02
   608f4:	c1 df       	rcall	.-126    	; 0x60878 <nvm_eeprom_flush_buffer>
   608f6:	9a df       	rcall	.-204    	; 0x6082c <nvm_wait_until_ready>
   608f8:	69 81       	ldd	r22, Y+1	; 0x01
   608fa:	81 2f       	mov	r24, r17
   608fc:	ca df       	rcall	.-108    	; 0x60892 <nvm_eeprom_load_byte_to_buffer>
   608fe:	f7 01       	movw	r30, r14
   60900:	12 82       	std	Z+2, r1	; 0x02
   60902:	9a 81       	ldd	r25, Y+2	; 0x02
   60904:	91 83       	std	Z+1, r25	; 0x01
   60906:	10 83       	st	Z, r17
   60908:	85 e3       	ldi	r24, 0x35	; 53
   6090a:	82 87       	std	Z+10, r24	; 0x0a
   6090c:	61 e0       	ldi	r22, 0x01	; 1
   6090e:	8b ec       	ldi	r24, 0xCB	; 203
   60910:	91 e0       	ldi	r25, 0x01	; 1
   60912:	87 dc       	rcall	.-1778   	; 0x60222 <ccp_write_io>
   60914:	f7 01       	movw	r30, r14
   60916:	02 87       	std	Z+10, r16	; 0x0a
   60918:	0f 90       	pop	r0
   6091a:	0f 90       	pop	r0
   6091c:	df 91       	pop	r29
   6091e:	cf 91       	pop	r28
   60920:	1f 91       	pop	r17
   60922:	0f 91       	pop	r16
   60924:	ff 90       	pop	r15
   60926:	ef 90       	pop	r14
   60928:	08 95       	ret

0006092a <nvm_eeprom_fill_buffer_with_value>:
   6092a:	cf 93       	push	r28
   6092c:	df 93       	push	r29
   6092e:	d8 2f       	mov	r29, r24
   60930:	a3 df       	rcall	.-186    	; 0x60878 <nvm_eeprom_flush_buffer>
   60932:	7c df       	rcall	.-264    	; 0x6082c <nvm_wait_until_ready>
   60934:	c0 e0       	ldi	r28, 0x00	; 0
   60936:	6d 2f       	mov	r22, r29
   60938:	8c 2f       	mov	r24, r28
   6093a:	ab df       	rcall	.-170    	; 0x60892 <nvm_eeprom_load_byte_to_buffer>
   6093c:	cf 5f       	subi	r28, 0xFF	; 255
   6093e:	c0 32       	cpi	r28, 0x20	; 32
   60940:	d1 f7       	brne	.-12     	; 0x60936 <nvm_eeprom_fill_buffer_with_value+0xc>
   60942:	df 91       	pop	r29
   60944:	cf 91       	pop	r28
   60946:	08 95       	ret

00060948 <nvm_eeprom_erase_bytes_in_all_pages>:
   60948:	71 df       	rcall	.-286    	; 0x6082c <nvm_wait_until_ready>
   6094a:	80 e3       	ldi	r24, 0x30	; 48
   6094c:	74 cf       	rjmp	.-280    	; 0x60836 <nvm_issue_command>

0006094e <nvm_eeprom_erase_all>:
   6094e:	8f ef       	ldi	r24, 0xFF	; 255
   60950:	ec df       	rcall	.-40     	; 0x6092a <nvm_eeprom_fill_buffer_with_value>
   60952:	fa cf       	rjmp	.-12     	; 0x60948 <nvm_eeprom_erase_bytes_in_all_pages>

00060954 <__vector_10>:
   60954:	1f 92       	push	r1
   60956:	0f 92       	push	r0
   60958:	0f b6       	in	r0, 0x3f	; 63
   6095a:	0f 92       	push	r0
   6095c:	11 24       	eor	r1, r1
   6095e:	8f 93       	push	r24
   60960:	9f 93       	push	r25
   60962:	af 93       	push	r26
   60964:	bf 93       	push	r27
   60966:	80 91 00 20 	lds	r24, 0x2000
   6096a:	90 91 01 20 	lds	r25, 0x2001
   6096e:	a0 91 02 20 	lds	r26, 0x2002
   60972:	b0 91 03 20 	lds	r27, 0x2003
   60976:	01 96       	adiw	r24, 0x01	; 1
   60978:	a1 1d       	adc	r26, r1
   6097a:	b1 1d       	adc	r27, r1
   6097c:	80 93 00 20 	sts	0x2000, r24
   60980:	90 93 01 20 	sts	0x2001, r25
   60984:	a0 93 02 20 	sts	0x2002, r26
   60988:	b0 93 03 20 	sts	0x2003, r27
   6098c:	bf 91       	pop	r27
   6098e:	af 91       	pop	r26
   60990:	9f 91       	pop	r25
   60992:	8f 91       	pop	r24
   60994:	0f 90       	pop	r0
   60996:	0f be       	out	0x3f, r0	; 63
   60998:	0f 90       	pop	r0
   6099a:	1f 90       	pop	r1
   6099c:	18 95       	reti

0006099e <initbootuart>:
   6099e:	e0 e8       	ldi	r30, 0x80	; 128
   609a0:	f6 e0       	ldi	r31, 0x06	; 6
   609a2:	88 e0       	ldi	r24, 0x08	; 8
   609a4:	81 83       	std	Z+1, r24	; 0x01
   609a6:	84 e0       	ldi	r24, 0x04	; 4
   609a8:	82 83       	std	Z+2, r24	; 0x02
   609aa:	e0 ea       	ldi	r30, 0xA0	; 160
   609ac:	fa e0       	ldi	r31, 0x0A	; 10
   609ae:	83 e0       	ldi	r24, 0x03	; 3
   609b0:	85 83       	std	Z+5, r24	; 0x05
   609b2:	83 e8       	ldi	r24, 0x83	; 131
   609b4:	86 83       	std	Z+6, r24	; 0x06
   609b6:	80 ed       	ldi	r24, 0xD0	; 208
   609b8:	87 83       	std	Z+7, r24	; 0x07
   609ba:	84 81       	ldd	r24, Z+4	; 0x04
   609bc:	80 61       	ori	r24, 0x10	; 16
   609be:	84 83       	std	Z+4, r24	; 0x04
   609c0:	84 81       	ldd	r24, Z+4	; 0x04
   609c2:	88 60       	ori	r24, 0x08	; 8
   609c4:	84 83       	std	Z+4, r24	; 0x04
   609c6:	08 95       	ret

000609c8 <sendchar>:
   609c8:	90 91 a1 0a 	lds	r25, 0x0AA1
   609cc:	95 ff       	sbrs	r25, 5
   609ce:	fc cf       	rjmp	.-8      	; 0x609c8 <sendchar>
   609d0:	80 93 a0 0a 	sts	0x0AA0, r24
   609d4:	08 95       	ret

000609d6 <recchar>:
   609d6:	80 91 a1 0a 	lds	r24, 0x0AA1
   609da:	87 ff       	sbrs	r24, 7
   609dc:	fc cf       	rjmp	.-8      	; 0x609d6 <recchar>
   609de:	80 91 a0 0a 	lds	r24, 0x0AA0
   609e2:	08 95       	ret

000609e4 <_exit>:
   609e4:	f8 94       	cli

000609e6 <__stop_program>:
   609e6:	ff cf       	rjmp	.-2      	; 0x609e6 <__stop_program>

Disassembly of section .BOOT:

000609e8 <nvm_common_spm>:
	/**
	 * For GCC:
	 * \param address uint32_t r22:r25
	 * \param nvm_cmd uint8_t  r20
	 */
	in r25, RAMPZ         ; Store RAMPZ. Highest address byte is ignored, so using that
   609e8:	9b b7       	in	r25, 0x3b	; 59
	out RAMPZ, r24        ; Load R24 into RAMPZ
   609ea:	8b bf       	out	0x3b, r24	; 59
	movw ZL, r22          ; Load R22:R23 into Z.
   609ec:	fb 01       	movw	r30, r22
	lds r24, NVM_CMD      ; Store NVM command register (r24 is no longer needed)
   609ee:	80 91 ca 01 	lds	r24, 0x01CA
	sts NVM_CMD, r20      ; Load prepared command into NVM Command register.
   609f2:	40 93 ca 01 	sts	0x01CA, r20
	ldi r23, CCP_SPM_gc   ; Prepare Protect SPM signature (r23 is no longer needed)
   609f6:	7d e9       	ldi	r23, 0x9D	; 157
	sts CCP, r23          ; Enable SPM operation (this disables interrupts for 4 cycles).
   609f8:	70 93 34 00 	sts	0x0034, r23
	spm                   ; Self-program.
   609fc:	e8 95       	spm
	sts NVM_CMD, r24      ; Restore NVM command register
   609fe:	80 93 ca 01 	sts	0x01CA, r24
	out RAMPZ, r25        ; Restore RAMPZ register.
   60a02:	9b bf       	out	0x3b, r25	; 59
	spm                   ; Self-program.
	sts NVM_CMD, r18      ; Restore NVM command register
	out RAMPZ, r19        ; Restore RAMPZ register.
#endif

	ret
   60a04:	08 95       	ret

00060a06 <nvm_flash_load_word_to_buffer>:
	 * For GCC:
	 * \param word_addr uint32_t r22:r25
	 * \param data      uint16_t r20:r21
	 */
wait_nvm:
	lds r18, NVM_STATUS
   60a06:	20 91 cf 01 	lds	r18, 0x01CF
	sbrc r18, NVM_NVMBUSY_bp
   60a0a:	27 fd       	sbrc	r18, 7
	rjmp wait_nvm
   60a0c:	fc cf       	rjmp	.-8      	; 0x60a06 <nvm_flash_load_word_to_buffer>

	in r25, RAMPZ         ; Store RAMPZ. Highest address byte is ignored, so using that
   60a0e:	9b b7       	in	r25, 0x3b	; 59
	out RAMPZ, r24        ; Load R24 into RAMPZ
   60a10:	8b bf       	out	0x3b, r24	; 59
	movw ZL, r22          ; Load R22:R23 into Z.
   60a12:	fb 01       	movw	r30, r22

	lds r24, NVM_CMD      ; Store NVM command register (r24 is no longer needed)
   60a14:	80 91 ca 01 	lds	r24, 0x01CA
	ldi r18, NVM_CMD_LOAD_FLASH_BUFFER_gc
   60a18:	23 e2       	ldi	r18, 0x23	; 35
	sts NVM_CMD, r18      ; Load prepared command into NVM Command register.
   60a1a:	20 93 ca 01 	sts	0x01CA, r18

	movw r0, r20          ; Load R20:R21 into R0:R1
   60a1e:	0a 01       	movw	r0, r20
	spm                   ; Self-program.
   60a20:	e8 95       	spm

	clr r1                ; Clear R1 for GCC _zero_reg_ to function properly.
   60a22:	11 24       	eor	r1, r1
	sts NVM_CMD, r24      ; Restore NVM command register
   60a24:	80 93 ca 01 	sts	0x01CA, r24
	out RAMPZ, r25        ; Restore RAMPZ register.
   60a28:	9b bf       	out	0x3b, r25	; 59

	sts NVM_CMD, r18      ; Restore NVM command register
	out RAMPZ, r19        ; Restore RAMPZ register.
#endif

	ret
   60a2a:	08 95       	ret
